; Function Attrs: mustprogress nounwind uwtable
define void @llama_model_free(ptr noundef %0) local_unnamed_addr #4 {
  %2 = icmp eq ptr %0, null
  br i1 %2, label %4, label %3

3:                                                ; preds = %1
  tail call void @_ZN11llama_modelD1Ev(ptr noundef nonnull align 8 dereferenceable(6784) %0) #35
  tail call void @_ZdlPvm(ptr noundef nonnull %0, i64 noundef 6784) #37
  br label %4

4:                                                ; preds = %3, %1
  ret void
}